target datalayout = "e-m:e-p270:32:32-p271:32:32-p272:64:64-i64:64-i128:128-f80:128-n8:16:32:64-S128"
target triple = "x86_64-pc-linux-gnu"

%struct._object = type { %union.anon, ptr }
%union.anon = type { i64 }
%struct.anon = type { i32, i32 }
%struct.triple = type { i64, i64, i32 }

@.str.60 = private unnamed_addr constant [18 x i8] c"test_long_numbits\00", align 1
@PyExc_AssertionError = external global ptr, align 8
@_Py_NoneStruct = external global %struct._object, align 8
@.str.259 = private unnamed_addr constant [33 x i8] c"wrong result for _PyLong_NumBits\00", align 1
@.str.260 = private unnamed_addr constant [34 x i8] c"wrong result for PyLong_GetSign()\00", align 1
@.str.261 = private unnamed_addr constant [7 x i8] c"%s: %s\00", align 1

; Function Attrs: alwaysinline nounwind uwtable
define internal i32 @_Py_IsImmortal(ptr noundef %0) #6 {
  %2 = alloca ptr, align 8
  store ptr %0, ptr %2, align 8, !tbaa !3
  %3 = load ptr, ptr %2, align 8, !tbaa !3
  %4 = getelementptr inbounds nuw %struct._object, ptr %3, i32 0, i32 0
  %5 = getelementptr inbounds nuw %struct.anon, ptr %4, i32 0, i32 0
  %6 = load i32, ptr %5, align 8, !tbaa !34
  %7 = icmp slt i32 %6, 0
  %8 = zext i1 %7 to i32
  ret i32 %8
}

; Function Attrs: nounwind uwtable
define internal ptr @raiseTestError(ptr noundef %0, ptr noundef %1) #0 {
  %3 = alloca ptr, align 8
  %4 = alloca ptr, align 8
  store ptr %0, ptr %3, align 8, !tbaa !46
  store ptr %1, ptr %4, align 8, !tbaa !46
  %5 = load ptr, ptr @PyExc_AssertionError, align 8, !tbaa !3
  %6 = load ptr, ptr %3, align 8, !tbaa !46
  %7 = load ptr, ptr %4, align 8, !tbaa !46
  %8 = call ptr (ptr, ptr, ...) @PyErr_Format(ptr noundef %5, ptr noundef @.str.261, ptr noundef %6, ptr noundef %7)
  ret ptr null
}

; Function Attrs: alwaysinline nounwind uwtable
define internal void @Py_DECREF(ptr noundef %0) #6 {
  %2 = alloca ptr, align 8
  store ptr %0, ptr %2, align 8, !tbaa !3
  %3 = load ptr, ptr %2, align 8, !tbaa !3
  %4 = call i32 @_Py_IsImmortal(ptr noundef %3)
  %5 = icmp ne i32 %4, 0
  br i1 %5, label %6, label %7

6:                                                ; preds = %1
  br label %16

7:                                                ; preds = %1
  %8 = load ptr, ptr %2, align 8, !tbaa !3
  %9 = getelementptr inbounds nuw %struct._object, ptr %8, i32 0, i32 0
  %10 = getelementptr inbounds nuw %struct.anon, ptr %9, i32 0, i32 0
  %11 = load i32, ptr %10, align 8, !tbaa !34
  %12 = add i32 %11, -1
  store i32 %12, ptr %10, align 8, !tbaa !34
  %13 = icmp eq i32 %12, 0
  br i1 %13, label %14, label %16

14:                                               ; preds = %7
  %15 = load ptr, ptr %2, align 8, !tbaa !3
  call void @_Py_Dealloc(ptr noundef %15)
  br label %16

16:                                               ; preds = %6, %14, %7
  ret void
}

; Function Attrs: nounwind uwtable
define internal ptr @_testinternalcapi_test_long_numbits_impl(ptr noundef %0) #0 {
  %2 = alloca ptr, align 8
  %3 = alloca ptr, align 8
  %4 = alloca [15 x %struct.triple], align 16
  %5 = alloca i64, align 8
  %6 = alloca i64, align 8
  %7 = alloca i32, align 4
  %8 = alloca ptr, align 8
  %9 = alloca i32, align 4
  store ptr %0, ptr %3, align 8, !tbaa !3
  call void @llvm.lifetime.start.p0(i64 360, ptr %4) #10
  call void @llvm.memcpy.p0.p0.i64(ptr align 16 %4, ptr align 16 @__const._testinternalcapi_test_long_numbits_impl.testcases, i64 360, i1 false)
  call void @llvm.lifetime.start.p0(i64 8, ptr %5) #10
  store i64 0, ptr %5, align 8, !tbaa !27
  br label %10

10:                                               ; preds = %49, %1
  %11 = load i64, ptr %5, align 8, !tbaa !27
  %12 = icmp ult i64 %11, 15
  br i1 %12, label %13, label %52

13:                                               ; preds = %10
  call void @llvm.lifetime.start.p0(i64 8, ptr %6) #10
  call void @llvm.lifetime.start.p0(i64 4, ptr %7) #10
  store i32 -7, ptr %7, align 4, !tbaa !26
  call void @llvm.lifetime.start.p0(i64 8, ptr %8) #10
  %14 = load i64, ptr %5, align 8, !tbaa !27
  %15 = getelementptr [15 x %struct.triple], ptr %4, i64 0, i64 %14
  %16 = getelementptr inbounds nuw %struct.triple, ptr %15, i32 0, i32 0
  %17 = load i64, ptr %16, align 8, !tbaa !285
  %18 = call ptr @PyLong_FromLong(i64 noundef %17)
  store ptr %18, ptr %8, align 8, !tbaa !3
  %19 = load ptr, ptr %8, align 8, !tbaa !3
  %20 = icmp eq ptr %19, null
  br i1 %20, label %21, label %22

21:                                               ; preds = %13
  store ptr null, ptr %2, align 8
  store i32 1, ptr %9, align 4
  br label %46

22:                                               ; preds = %13
  %23 = load ptr, ptr %8, align 8, !tbaa !3
  %24 = call i64 @_PyLong_NumBits(ptr noundef %23)
  store i64 %24, ptr %6, align 8, !tbaa !27
  %25 = load ptr, ptr %8, align 8, !tbaa !3
  %26 = call i32 @PyLong_GetSign(ptr noundef %25, ptr noundef %7)
  %27 = load ptr, ptr %8, align 8, !tbaa !3
  call void @Py_DECREF(ptr noundef %27)
  %28 = load i64, ptr %6, align 8, !tbaa !27
  %29 = load i64, ptr %5, align 8, !tbaa !27
  %30 = getelementptr [15 x %struct.triple], ptr %4, i64 0, i64 %29
  %31 = getelementptr inbounds nuw %struct.triple, ptr %30, i32 0, i32 1
  %32 = load i64, ptr %31, align 8, !tbaa !287
  %33 = icmp ne i64 %28, %32
  br i1 %33, label %34, label %36

34:                                               ; preds = %22
  %35 = call ptr @raiseTestError(ptr noundef @.str.60, ptr noundef @.str.259)
  store ptr %35, ptr %2, align 8
  store i32 1, ptr %9, align 4
  br label %46

36:                                               ; preds = %22
  %37 = load i32, ptr %7, align 4, !tbaa !26
  %38 = load i64, ptr %5, align 8, !tbaa !27
  %39 = getelementptr [15 x %struct.triple], ptr %4, i64 0, i64 %38
  %40 = getelementptr inbounds nuw %struct.triple, ptr %39, i32 0, i32 2
  %41 = load i32, ptr %40, align 8, !tbaa !288
  %42 = icmp ne i32 %37, %41
  br i1 %42, label %43, label %45

43:                                               ; preds = %36
  %44 = call ptr @raiseTestError(ptr noundef @.str.60, ptr noundef @.str.260)
  store ptr %44, ptr %2, align 8
  store i32 1, ptr %9, align 4
  br label %46

45:                                               ; preds = %36
  store i32 0, ptr %9, align 4
  br label %46

46:                                               ; preds = %45, %43, %34, %21
  call void @llvm.lifetime.end.p0(i64 8, ptr %8) #10
  call void @llvm.lifetime.end.p0(i64 4, ptr %7) #10
  call void @llvm.lifetime.end.p0(i64 8, ptr %6) #10
  %47 = load i32, ptr %9, align 4
  switch i32 %47, label %53 [
    i32 0, label %48
  ]

48:                                               ; preds = %46
  br label %49

49:                                               ; preds = %48
  %50 = load i64, ptr %5, align 8, !tbaa !27
  %51 = add i64 %50, 1
  store i64 %51, ptr %5, align 8, !tbaa !27
  br label %10, !llvm.loop !289

52:                                               ; preds = %10
  store ptr @_Py_NoneStruct, ptr %2, align 8
  store i32 1, ptr %9, align 4
  br label %53

53:                                               ; preds = %52, %46
  call void @llvm.lifetime.end.p0(i64 8, ptr %5) #10
  call void @llvm.lifetime.end.p0(i64 360, ptr %4) #10
  %54 = load ptr, ptr %2, align 8
  ret ptr %54
}

; Function Attrs: nounwind uwtable
define internal ptr @_testinternalcapi_test_long_numbits(ptr noundef %0, ptr noundef %1) #0 {
  %3 = alloca ptr, align 8
  %4 = alloca ptr, align 8
  store ptr %0, ptr %3, align 8, !tbaa !3
  store ptr %1, ptr %4, align 8, !tbaa !3
  %5 = load ptr, ptr %3, align 8, !tbaa !3
  %6 = call ptr @_testinternalcapi_test_long_numbits_impl(ptr noundef %5)
  ret ptr %6
}