; Function Attrs: nounwind uwtable
define internal noundef ptr @_testinternalcapi_test_long_numbits(ptr readnone captures(none) %0, ptr readnone captures(none) %1) #0 {
  %3 = alloca i32, align 4
  br label %4

4:                                                ; preds = %23, %2
  %.0121.i = phi i64 [ 0, %2 ], [ %24, %23 ]
  call void @llvm.lifetime.start.p0(i64 4, ptr nonnull %3) #11
  store i32 -7, ptr %3, align 4, !tbaa !25
  %5 = getelementptr [15 x %struct.triple], ptr @__const._testinternalcapi_test_long_numbits_impl.testcases, i64 0, i64 %.0121.i
  %6 = load i64, ptr %5, align 8, !tbaa !252
  %7 = call ptr @PyLong_FromLong(i64 noundef %6) #11
  %8 = icmp eq ptr %7, null
  br i1 %8, label %.critedge.i, label %9

9:                                                ; preds = %4
  %10 = call i64 @_PyLong_NumBits(ptr noundef nonnull %7) #11
  %11 = call i32 @PyLong_GetSign(ptr noundef nonnull %7, ptr noundef nonnull %3) #11
  %12 = load i32, ptr %7, align 8, !tbaa !10
  %.not.i.i = icmp sgt i32 %12, -1
  br i1 %.not.i.i, label %13, label %Py_DECREF.exit.i

13:                                               ; preds = %9
  %14 = add nsw i32 %12, -1
  store i32 %14, ptr %7, align 8, !tbaa !10
  %15 = icmp eq i32 %14, 0
  br i1 %15, label %16, label %Py_DECREF.exit.i

16:                                               ; preds = %13
  call void @_Py_Dealloc(ptr noundef nonnull %7) #11
  br label %Py_DECREF.exit.i

Py_DECREF.exit.i:                                 ; preds = %16, %13, %9
  %17 = getelementptr inbounds nuw i8, ptr %5, i64 8
  %18 = load i64, ptr %17, align 8, !tbaa !254
  %.not.i = icmp eq i64 %10, %18
  br i1 %.not.i, label %19, label %.critedge.sink.split.i

19:                                               ; preds = %Py_DECREF.exit.i
  %20 = load i32, ptr %3, align 4, !tbaa !25
  %21 = getelementptr inbounds nuw i8, ptr %5, i64 16
  %22 = load i32, ptr %21, align 8, !tbaa !255
  %.not14.i = icmp eq i32 %20, %22
  br i1 %.not14.i, label %23, label %.critedge.sink.split.i

23:                                               ; preds = %19
  call void @llvm.lifetime.end.p0(i64 4, ptr nonnull %3) #11
  %24 = add nuw nsw i64 %.0121.i, 1
  %exitcond.not.i = icmp eq i64 %24, 15
  br i1 %exitcond.not.i, label %_testinternalcapi_test_long_numbits_impl.exit, label %4, !llvm.loop !256

.critedge.sink.split.i:                           ; preds = %19, %Py_DECREF.exit.i
  %.str.260.sink.i = phi ptr [ @.str.259, %Py_DECREF.exit.i ], [ @.str.260, %19 ]
  %25 = load ptr, ptr @PyExc_AssertionError, align 8, !tbaa !9
  %26 = call ptr (ptr, ptr, ...) @PyErr_Format(ptr noundef %25, ptr noundef nonnull @.str.261, ptr noundef nonnull @.str.60, ptr noundef nonnull %.str.260.sink.i) #11
  br label %.critedge.i

.critedge.i:                                      ; preds = %4, %.critedge.sink.split.i
  call void @llvm.lifetime.end.p0(i64 4, ptr nonnull %3) #11
  br label %_testinternalcapi_test_long_numbits_impl.exit

_testinternalcapi_test_long_numbits_impl.exit:    ; preds = %23, %.critedge.i
  %.2.i = phi ptr [ null, %.critedge.i ], [ @_Py_NoneStruct, %23 ]
  ret ptr %.2.i
}